target datalayout = "e-m:e-p270:32:32-p271:32:32-p272:64:64-i64:64-i128:128-f80:128-n8:16:32:64-S128"
target triple = "x86_64-pc-linux-gnu"

%struct.H2645SEI = type { %struct.H2645SEIA53Caption, %struct.H2645SEIAFD, %struct.HEVCSEIDynamicHDRPlus, %struct.HEVCSEIDynamicHDRVivid, %struct.HEVCSEILCEVC, %struct.H2645SEIUnregistered, %struct.H2645SEIFramePacking, %struct.H2645SEIDisplayOrientation, %struct.H2645SEIAlternativeTransfer, %struct.H2645SEIAmbientViewingEnvironment, %struct.H2645SEIMasteringDisplay, %struct.H2645SEIContentLight, %struct.AVFilmGrainAFGS1Params, ptr }
%struct.H2645SEIA53Caption = type { ptr }
%struct.H2645SEIAFD = type { i32, i8 }
%struct.HEVCSEIDynamicHDRPlus = type { ptr }
%struct.HEVCSEIDynamicHDRVivid = type { ptr }
%struct.HEVCSEILCEVC = type { ptr }
%struct.H2645SEIUnregistered = type { ptr, i32, i32 }
%struct.H2645SEIFramePacking = type { i32, i32, i32, i32, i32, i32, i32, i32 }
%struct.H2645SEIDisplayOrientation = type { i32, i32, i32, i32 }
%struct.H2645SEIAlternativeTransfer = type { i32, i32 }
%struct.H2645SEIAmbientViewingEnvironment = type { i32, i32, i16, i16 }
%struct.H2645SEIMasteringDisplay = type { i32, [3 x [2 x i16]], [2 x i16], i32, i32 }
%struct.H2645SEIContentLight = type { i32, i16, i16 }
%struct.AVFilmGrainAFGS1Params = type { i32, [8 x ptr] }

; Function Attrs: nounwind uwtable
define i32 @ff_h2645_sei_ctx_replace(ptr noundef %0, ptr noundef %1) #0 {
  %3 = alloca i32, align 4
  %4 = alloca ptr, align 8
  %5 = alloca ptr, align 8
  %6 = alloca i32, align 4
  %7 = alloca i32, align 4
  %8 = alloca i32, align 4
  %9 = alloca i32, align 4
  %10 = alloca i32, align 4
  store ptr %0, ptr %4, align 8, !tbaa !4
  store ptr %1, ptr %5, align 8, !tbaa !4
  call void @llvm.lifetime.start.p0(i64 4, ptr %6) #10
  %11 = load ptr, ptr %4, align 8, !tbaa !4
  %12 = getelementptr inbounds nuw %struct.H2645SEI, ptr %11, i32 0, i32 0
  %13 = getelementptr inbounds nuw %struct.H2645SEIA53Caption, ptr %12, i32 0, i32 0
  %14 = load ptr, ptr %5, align 8, !tbaa !4
  %15 = getelementptr inbounds nuw %struct.H2645SEI, ptr %14, i32 0, i32 0
  %16 = getelementptr inbounds nuw %struct.H2645SEIA53Caption, ptr %15, i32 0, i32 0
  %17 = load ptr, ptr %16, align 8, !tbaa !112
  %18 = call i32 @av_buffer_replace(ptr noundef %13, ptr noundef %17)
  store i32 %18, ptr %6, align 4, !tbaa !9
  %19 = load i32, ptr %6, align 4, !tbaa !9
  %20 = icmp slt i32 %19, 0
  br i1 %20, label %21, label %23

21:                                               ; preds = %2
  %22 = load i32, ptr %6, align 4, !tbaa !9
  store i32 %22, ptr %3, align 4
  store i32 1, ptr %7, align 4
  br label %179

23:                                               ; preds = %2
  call void @llvm.lifetime.start.p0(i64 4, ptr %8) #10
  store i32 0, ptr %8, align 4, !tbaa !9
  br label %24

24:                                               ; preds = %40, %23
  %25 = load i32, ptr %8, align 4, !tbaa !9
  %26 = load ptr, ptr %4, align 8, !tbaa !4
  %27 = getelementptr inbounds nuw %struct.H2645SEI, ptr %26, i32 0, i32 5
  %28 = getelementptr inbounds nuw %struct.H2645SEIUnregistered, ptr %27, i32 0, i32 1
  %29 = load i32, ptr %28, align 8, !tbaa !113
  %30 = icmp ult i32 %25, %29
  br i1 %30, label %32, label %31

31:                                               ; preds = %24
  store i32 2, ptr %7, align 4
  call void @llvm.lifetime.end.p0(i64 4, ptr %8) #10
  br label %43

32:                                               ; preds = %24
  %33 = load ptr, ptr %4, align 8, !tbaa !4
  %34 = getelementptr inbounds nuw %struct.H2645SEI, ptr %33, i32 0, i32 5
  %35 = getelementptr inbounds nuw %struct.H2645SEIUnregistered, ptr %34, i32 0, i32 0
  %36 = load ptr, ptr %35, align 8, !tbaa !114
  %37 = load i32, ptr %8, align 4, !tbaa !9
  %38 = zext i32 %37 to i64
  %39 = getelementptr inbounds nuw ptr, ptr %36, i64 %38
  call void @av_buffer_unref(ptr noundef %39)
  br label %40

40:                                               ; preds = %32
  %41 = load i32, ptr %8, align 4, !tbaa !9
  %42 = add i32 %41, 1
  store i32 %42, ptr %8, align 4, !tbaa !9
  br label %24, !llvm.loop !115

43:                                               ; preds = %31
  %44 = load ptr, ptr %4, align 8, !tbaa !4
  %45 = getelementptr inbounds nuw %struct.H2645SEI, ptr %44, i32 0, i32 5
  %46 = getelementptr inbounds nuw %struct.H2645SEIUnregistered, ptr %45, i32 0, i32 1
  store i32 0, ptr %46, align 8, !tbaa !113
  %47 = load ptr, ptr %4, align 8, !tbaa !4
  %48 = getelementptr inbounds nuw %struct.H2645SEI, ptr %47, i32 0, i32 4
  %49 = getelementptr inbounds nuw %struct.HEVCSEILCEVC, ptr %48, i32 0, i32 0
  %50 = load ptr, ptr %5, align 8, !tbaa !4
  %51 = getelementptr inbounds nuw %struct.H2645SEI, ptr %50, i32 0, i32 4
  %52 = getelementptr inbounds nuw %struct.HEVCSEILCEVC, ptr %51, i32 0, i32 0
  %53 = load ptr, ptr %52, align 8, !tbaa !116
  %54 = call i32 @av_buffer_replace(ptr noundef %49, ptr noundef %53)
  store i32 %54, ptr %6, align 4, !tbaa !9
  %55 = load i32, ptr %6, align 4, !tbaa !9
  %56 = icmp slt i32 %55, 0
  br i1 %56, label %57, label %59

57:                                               ; preds = %43
  %58 = load i32, ptr %6, align 4, !tbaa !9
  store i32 %58, ptr %3, align 4
  store i32 1, ptr %7, align 4
  br label %179

59:                                               ; preds = %43
  %60 = load ptr, ptr %5, align 8, !tbaa !4
  %61 = getelementptr inbounds nuw %struct.H2645SEI, ptr %60, i32 0, i32 5
  %62 = getelementptr inbounds nuw %struct.H2645SEIUnregistered, ptr %61, i32 0, i32 1
  %63 = load i32, ptr %62, align 8, !tbaa !113
  %64 = icmp ne i32 %63, 0
  br i1 %64, label %65, label %127

65:                                               ; preds = %59
  %66 = load ptr, ptr %4, align 8, !tbaa !4
  %67 = getelementptr inbounds nuw %struct.H2645SEI, ptr %66, i32 0, i32 5
  %68 = getelementptr inbounds nuw %struct.H2645SEIUnregistered, ptr %67, i32 0, i32 0
  %69 = load ptr, ptr %5, align 8, !tbaa !4
  %70 = getelementptr inbounds nuw %struct.H2645SEI, ptr %69, i32 0, i32 5
  %71 = getelementptr inbounds nuw %struct.H2645SEIUnregistered, ptr %70, i32 0, i32 1
  %72 = load i32, ptr %71, align 8, !tbaa !113
  %73 = zext i32 %72 to i64
  %74 = call i32 @av_reallocp_array(ptr noundef %68, i64 noundef %73, i64 noundef 8)
  store i32 %74, ptr %6, align 4, !tbaa !9
  %75 = load i32, ptr %6, align 4, !tbaa !9
  %76 = icmp slt i32 %75, 0
  br i1 %76, label %77, label %79

77:                                               ; preds = %65
  %78 = load i32, ptr %6, align 4, !tbaa !9
  store i32 %78, ptr %3, align 4
  store i32 1, ptr %7, align 4
  br label %179

79:                                               ; preds = %65
  call void @llvm.lifetime.start.p0(i64 4, ptr %9) #10
  store i32 0, ptr %9, align 4, !tbaa !9
  br label %80

80:                                               ; preds = %121, %79
  %81 = load i32, ptr %9, align 4, !tbaa !9
  %82 = load ptr, ptr %5, align 8, !tbaa !4
  %83 = getelementptr inbounds nuw %struct.H2645SEI, ptr %82, i32 0, i32 5
  %84 = getelementptr inbounds nuw %struct.H2645SEIUnregistered, ptr %83, i32 0, i32 1
  %85 = load i32, ptr %84, align 8, !tbaa !113
  %86 = icmp ult i32 %81, %85
  br i1 %86, label %88, label %87

87:                                               ; preds = %80
  store i32 5, ptr %7, align 4
  br label %124

88:                                               ; preds = %80
  %89 = load ptr, ptr %5, align 8, !tbaa !4
  %90 = getelementptr inbounds nuw %struct.H2645SEI, ptr %89, i32 0, i32 5
  %91 = getelementptr inbounds nuw %struct.H2645SEIUnregistered, ptr %90, i32 0, i32 0
  %92 = load ptr, ptr %91, align 8, !tbaa !114
  %93 = load i32, ptr %9, align 4, !tbaa !9
  %94 = zext i32 %93 to i64
  %95 = getelementptr inbounds nuw ptr, ptr %92, i64 %94
  %96 = load ptr, ptr %95, align 8, !tbaa !46
  %97 = call ptr @av_buffer_ref(ptr noundef %96)
  %98 = load ptr, ptr %4, align 8, !tbaa !4
  %99 = getelementptr inbounds nuw %struct.H2645SEI, ptr %98, i32 0, i32 5
  %100 = getelementptr inbounds nuw %struct.H2645SEIUnregistered, ptr %99, i32 0, i32 0
  %101 = load ptr, ptr %100, align 8, !tbaa !114
  %102 = load i32, ptr %9, align 4, !tbaa !9
  %103 = zext i32 %102 to i64
  %104 = getelementptr inbounds nuw ptr, ptr %101, i64 %103
  store ptr %97, ptr %104, align 8, !tbaa !46
  %105 = load ptr, ptr %4, align 8, !tbaa !4
  %106 = getelementptr inbounds nuw %struct.H2645SEI, ptr %105, i32 0, i32 5
  %107 = getelementptr inbounds nuw %struct.H2645SEIUnregistered, ptr %106, i32 0, i32 0
  %108 = load ptr, ptr %107, align 8, !tbaa !114
  %109 = load i32, ptr %9, align 4, !tbaa !9
  %110 = zext i32 %109 to i64
  %111 = getelementptr inbounds nuw ptr, ptr %108, i64 %110
  %112 = load ptr, ptr %111, align 8, !tbaa !46
  %113 = icmp ne ptr %112, null
  br i1 %113, label %115, label %114

114:                                              ; preds = %88
  store i32 -12, ptr %3, align 4
  store i32 1, ptr %7, align 4
  br label %124

115:                                              ; preds = %88
  %116 = load ptr, ptr %4, align 8, !tbaa !4
  %117 = getelementptr inbounds nuw %struct.H2645SEI, ptr %116, i32 0, i32 5
  %118 = getelementptr inbounds nuw %struct.H2645SEIUnregistered, ptr %117, i32 0, i32 1
  %119 = load i32, ptr %118, align 8, !tbaa !113
  %120 = add i32 %119, 1
  store i32 %120, ptr %118, align 8, !tbaa !113
  br label %121

121:                                              ; preds = %115
  %122 = load i32, ptr %9, align 4, !tbaa !9
  %123 = add i32 %122, 1
  store i32 %123, ptr %9, align 4, !tbaa !9
  br label %80, !llvm.loop !117

124:                                              ; preds = %114, %87
  call void @llvm.lifetime.end.p0(i64 4, ptr %9) #10
  %125 = load i32, ptr %7, align 4
  switch i32 %125, label %179 [
    i32 5, label %126
  ]

126:                                              ; preds = %124
  br label %127

127:                                              ; preds = %126, %59
  call void @llvm.lifetime.start.p0(i64 4, ptr %10) #10
  store i32 0, ptr %10, align 4, !tbaa !9
  br label %128

128:                                              ; preds = %153, %127
  %129 = load i32, ptr %10, align 4, !tbaa !9
  %130 = zext i32 %129 to i64
  %131 = icmp ult i64 %130, 8
  br i1 %131, label %133, label %132

132:                                              ; preds = %128
  store i32 8, ptr %7, align 4
  br label %156

133:                                              ; preds = %128
  %134 = load ptr, ptr %4, align 8, !tbaa !4
  %135 = getelementptr inbounds nuw %struct.H2645SEI, ptr %134, i32 0, i32 12
  %136 = getelementptr inbounds nuw %struct.AVFilmGrainAFGS1Params, ptr %135, i32 0, i32 1
  %137 = load i32, ptr %10, align 4, !tbaa !9
  %138 = zext i32 %137 to i64
  %139 = getelementptr inbounds nuw [8 x ptr], ptr %136, i64 0, i64 %138
  %140 = load ptr, ptr %5, align 8, !tbaa !4
  %141 = getelementptr inbounds nuw %struct.H2645SEI, ptr %140, i32 0, i32 12
  %142 = getelementptr inbounds nuw %struct.AVFilmGrainAFGS1Params, ptr %141, i32 0, i32 1
  %143 = load i32, ptr %10, align 4, !tbaa !9
  %144 = zext i32 %143 to i64
  %145 = getelementptr inbounds nuw [8 x ptr], ptr %142, i64 0, i64 %144
  %146 = load ptr, ptr %145, align 8, !tbaa !46
  %147 = call i32 @av_buffer_replace(ptr noundef %139, ptr noundef %146)
  store i32 %147, ptr %6, align 4, !tbaa !9
  %148 = load i32, ptr %6, align 4, !tbaa !9
  %149 = icmp slt i32 %148, 0
  br i1 %149, label %150, label %152

150:                                              ; preds = %133
  %151 = load i32, ptr %6, align 4, !tbaa !9
  store i32 %151, ptr %3, align 4
  store i32 1, ptr %7, align 4
  br label %156

152:                                              ; preds = %133
  br label %153

153:                                              ; preds = %152
  %154 = load i32, ptr %10, align 4, !tbaa !9
  %155 = add i32 %154, 1
  store i32 %155, ptr %10, align 4, !tbaa !9
  br label %128, !llvm.loop !118

156:                                              ; preds = %150, %132
  call void @llvm.lifetime.end.p0(i64 4, ptr %10) #10
  %157 = load i32, ptr %7, align 4
  switch i32 %157, label %179 [
    i32 8, label %158
  ]

158:                                              ; preds = %156
  %159 = load ptr, ptr %5, align 8, !tbaa !4
  %160 = getelementptr inbounds nuw %struct.H2645SEI, ptr %159, i32 0, i32 12
  %161 = getelementptr inbounds nuw %struct.AVFilmGrainAFGS1Params, ptr %160, i32 0, i32 0
  %162 = load i32, ptr %161, align 8, !tbaa !119
  %163 = load ptr, ptr %4, align 8, !tbaa !4
  %164 = getelementptr inbounds nuw %struct.H2645SEI, ptr %163, i32 0, i32 12
  %165 = getelementptr inbounds nuw %struct.AVFilmGrainAFGS1Params, ptr %164, i32 0, i32 0
  store i32 %162, ptr %165, align 8, !tbaa !119
  %166 = load ptr, ptr %4, align 8, !tbaa !4
  %167 = getelementptr inbounds nuw %struct.H2645SEI, ptr %166, i32 0, i32 10
  %168 = load ptr, ptr %5, align 8, !tbaa !4
  %169 = getelementptr inbounds nuw %struct.H2645SEI, ptr %168, i32 0, i32 10
  call void @llvm.memcpy.p0.p0.i64(ptr align 4 %167, ptr align 4 %169, i64 28, i1 false), !tbaa.struct !120
  %170 = load ptr, ptr %4, align 8, !tbaa !4
  %171 = getelementptr inbounds nuw %struct.H2645SEI, ptr %170, i32 0, i32 11
  %172 = load ptr, ptr %5, align 8, !tbaa !4
  %173 = getelementptr inbounds nuw %struct.H2645SEI, ptr %172, i32 0, i32 11
  call void @llvm.memcpy.p0.p0.i64(ptr align 8 %171, ptr align 8 %173, i64 8, i1 false), !tbaa.struct !121
  %174 = load ptr, ptr %4, align 8, !tbaa !4
  %175 = getelementptr inbounds nuw %struct.H2645SEI, ptr %174, i32 0, i32 13
  %176 = load ptr, ptr %5, align 8, !tbaa !4
  %177 = getelementptr inbounds nuw %struct.H2645SEI, ptr %176, i32 0, i32 13
  %178 = load ptr, ptr %177, align 8, !tbaa !16
  call void @av_refstruct_replace(ptr noundef %175, ptr noundef %178)
  store i32 0, ptr %3, align 4
  store i32 1, ptr %7, align 4
  br label %179

179:                                              ; preds = %158, %156, %124, %77, %57, %21
  call void @llvm.lifetime.end.p0(i64 4, ptr %6) #10
  %180 = load i32, ptr %3, align 4
  ret i32 %180
}