; Function Attrs: nounwind uwtable
define range(i32 -2147483648, 1) i32 @ff_h2645_sei_ctx_replace(ptr noundef %0, ptr noundef readonly captures(none) %1) local_unnamed_addr #0 {
  %3 = load ptr, ptr %1, align 8, !tbaa !92
  %4 = tail call i32 @av_buffer_replace(ptr noundef %0, ptr noundef %3) #9
  %5 = icmp slt i32 %4, 0
  br i1 %5, label %.loopexit, label %.preheader63

.preheader63:                                     ; preds = %2
  %6 = getelementptr inbounds nuw i8, ptr %0, i64 40
  %7 = getelementptr inbounds nuw i8, ptr %0, i64 48
  %8 = load i32, ptr %7, align 8, !tbaa !93
  %.not71 = icmp eq i32 %8, 0
  br i1 %.not71, label %._crit_edge, label %.lr.ph

._crit_edge:                                      ; preds = %.lr.ph, %.preheader63
  store i32 0, ptr %7, align 8, !tbaa !93
  %9 = getelementptr inbounds nuw i8, ptr %0, i64 32
  %10 = getelementptr inbounds nuw i8, ptr %1, i64 32
  %11 = load ptr, ptr %10, align 8, !tbaa !94
  %12 = tail call i32 @av_buffer_replace(ptr noundef nonnull %9, ptr noundef %11) #9
  %13 = icmp slt i32 %12, 0
  br i1 %13, label %.loopexit, label %19

.lr.ph:                                           ; preds = %.preheader63, %.lr.ph
  %indvars.iv = phi i64 [ %indvars.iv.next, %.lr.ph ], [ 0, %.preheader63 ]
  %14 = load ptr, ptr %6, align 8, !tbaa !95
  %15 = getelementptr inbounds nuw ptr, ptr %14, i64 %indvars.iv
  tail call void @av_buffer_unref(ptr noundef %15) #9
  %indvars.iv.next = add nuw nsw i64 %indvars.iv, 1
  %16 = load i32, ptr %7, align 8, !tbaa !93
  %17 = zext i32 %16 to i64
  %18 = icmp samesign ult i64 %indvars.iv.next, %17
  br i1 %18, label %.lr.ph, label %._crit_edge, !llvm.loop !96

19:                                               ; preds = %._crit_edge
  %20 = getelementptr inbounds nuw i8, ptr %1, i64 40
  %21 = getelementptr inbounds nuw i8, ptr %1, i64 48
  %22 = load i32, ptr %21, align 8, !tbaa !93
  %.not = icmp eq i32 %22, 0
  br i1 %.not, label %.critedge, label %23

23:                                               ; preds = %19
  %24 = zext i32 %22 to i64
  %25 = tail call i32 @av_reallocp_array(ptr noundef nonnull %6, i64 noundef %24, i64 noundef 8) #9
  %26 = icmp slt i32 %25, 0
  br i1 %26, label %.loopexit, label %.preheader

.preheader:                                       ; preds = %23
  %27 = load i32, ptr %21, align 8, !tbaa !93
  %.not6067.not = icmp eq i32 %27, 0
  br i1 %.not6067.not, label %.critedge, label %.lr.ph69

.lr.ph69:                                         ; preds = %.preheader, %34
  %indvars.iv75 = phi i64 [ %indvars.iv.next76, %34 ], [ 0, %.preheader ]
  %28 = load ptr, ptr %20, align 8, !tbaa !95
  %29 = getelementptr inbounds nuw ptr, ptr %28, i64 %indvars.iv75
  %30 = load ptr, ptr %29, align 8, !tbaa !27
  %31 = tail call ptr @av_buffer_ref(ptr noundef %30) #9
  %32 = load ptr, ptr %6, align 8, !tbaa !95
  %33 = getelementptr inbounds nuw ptr, ptr %32, i64 %indvars.iv75
  store ptr %31, ptr %33, align 8, !tbaa !27
  %.not59 = icmp eq ptr %31, null
  br i1 %.not59, label %.loopexit, label %34

34:                                               ; preds = %.lr.ph69
  %35 = load i32, ptr %7, align 8, !tbaa !93
  %36 = add i32 %35, 1
  store i32 %36, ptr %7, align 8, !tbaa !93
  %indvars.iv.next76 = add nuw nsw i64 %indvars.iv75, 1
  %37 = load i32, ptr %21, align 8, !tbaa !93
  %38 = zext i32 %37 to i64
  %.not60 = icmp samesign ult i64 %indvars.iv.next76, %38
  br i1 %.not60, label %.lr.ph69, label %.critedge, !llvm.loop !97

.critedge:                                        ; preds = %34, %.preheader, %19
  %39 = getelementptr inbounds nuw i8, ptr %0, i64 168
  %40 = getelementptr inbounds nuw i8, ptr %1, i64 168
  br label %42

41:                                               ; preds = %42
  %indvars.iv.next79 = add nuw nsw i64 %indvars.iv78, 1
  %exitcond = icmp eq i64 %indvars.iv.next79, 8
  br i1 %exitcond, label %48, label %42, !llvm.loop !98

42:                                               ; preds = %.critedge, %41
  %indvars.iv78 = phi i64 [ 0, %.critedge ], [ %indvars.iv.next79, %41 ]
  %43 = getelementptr inbounds nuw [8 x ptr], ptr %39, i64 0, i64 %indvars.iv78
  %44 = getelementptr inbounds nuw [8 x ptr], ptr %40, i64 0, i64 %indvars.iv78
  %45 = load ptr, ptr %44, align 8, !tbaa !27
  %46 = tail call i32 @av_buffer_replace(ptr noundef nonnull %43, ptr noundef %45) #9
  %47 = icmp slt i32 %46, 0
  br i1 %47, label %.loopexit, label %41

48:                                               ; preds = %41
  %49 = getelementptr inbounds nuw i8, ptr %1, i64 160
  %50 = load i32, ptr %49, align 8, !tbaa !99
  %51 = getelementptr inbounds nuw i8, ptr %0, i64 160
  store i32 %50, ptr %51, align 8, !tbaa !99
  %52 = getelementptr inbounds nuw i8, ptr %0, i64 124
  %53 = getelementptr inbounds nuw i8, ptr %1, i64 124
  tail call void @llvm.memcpy.p0.p0.i64(ptr noundef nonnull align 4 dereferenceable(28) %52, ptr noundef nonnull align 4 dereferenceable(28) %53, i64 28, i1 false), !tbaa.struct !100
  %54 = getelementptr inbounds nuw i8, ptr %0, i64 152
  %55 = getelementptr inbounds nuw i8, ptr %1, i64 152
  %56 = load i64, ptr %55, align 8
  store i64 %56, ptr %54, align 8
  %57 = getelementptr inbounds nuw i8, ptr %0, i64 232
  %58 = getelementptr inbounds nuw i8, ptr %1, i64 232
  %59 = load ptr, ptr %58, align 8, !tbaa !38
  tail call void @av_refstruct_replace(ptr noundef nonnull %57, ptr noundef %59) #9
  br label %.loopexit

.loopexit:                                        ; preds = %.lr.ph69, %42, %23, %._crit_edge, %2, %48
  %.051 = phi i32 [ 0, %48 ], [ %4, %2 ], [ %12, %._crit_edge ], [ %25, %23 ], [ %46, %42 ], [ -12, %.lr.ph69 ]
  ret i32 %.051
}